(lp1
(lp2
(lp3
I0
aI1
aI2
aaI0
aS'GaussNB'
p4
aa(lp5
g3
acnumpy.core.multiarray
scalar
p6
(cnumpy
dtype
p7
(S'f8'
I0
I1
tRp8
(I3
S'<'
NNNI-1
I-1
I0
tbS'\x9a\x87Q\x82\xe0@\xd3?'
tRp9
aS'MultNB'
p10
aa(lp11
g3
ag6
(g8
S'\xaa\x99\x91y\x1d\xb9\xd5?'
tRp12
aS'KNN'
p13
aa(lp14
g3
ag6
(g8
S'\xc8\xf3\xea1\xd2/\xd6?'
tRp15
aS'LR'
p16
aa(lp17
g3
ag6
(g8
S'm0\x8b\x94\x0c\xe8\xd9?'
tRp18
aS'RF'
p19
aa(lp20
g3
ag6
(g8
S'\xadc\xb8\xaf\xe22\xda?'
tRp21
aS'DT'
p22
aa(lp23
(lp24
I0
aI1
aI4
aag6
(g8
S'9+\x10+${\xda?'
tRp25
ag22
aa(lp26
(lp27
I0
aI1
aI6
aag6
(g8
S"'\xffh$]\xe2\xda?"
tRp28
ag19
aa(lp29
g27
ag6
(g8
S'\x1a\x9ek\xdf\xc7/\xdb?'
tRp30
ag22
aa(lp31
(lp32
I0
aI2
aI6
aag6
(g8
S'\xe5L\xc1^\x1a:\xdb?'
tRp33
ag22
aa(lp34
(lp35
I0
aI3
aI6
aag6
(g8
S'\x8e"C{Kp\xdb?'
tRp36
ag22
aa(lp37
(lp38
I0
aI4
aI6
aag6
(g8
S'mIo\x18*\x9c\xdb?'
tRp39
ag22
aa(lp40
(lp41
I0
aI1
aI2
aI3
aag6
(g8
S'\xa1\xcc\xe1\xa0\x12\xfa\xde?'
tRp42
ag19
aa(lp43
g41
ag6
(g8
S'V\x84\xe6Wl\x85\xdf?'
tRp44
ag22
aa(lp45
(lp46
I0
aI1
aI2
aI4
aag6
(g8
S'\xf7\x96\xe06k\x11\xe0?'
tRp47
ag22
aa(lp48
(lp49
I0
aI1
aI2
aI6
aag6
(g8
S'\xd0L\xcb\x86\xb5\x12\xe0?'
tRp50
ag19
aa(lp51
g49
ag6
(g8
S'\x0b\xb5N\xe0Yw\xe0?'
tRp52
ag22
aa(lp53
(lp54
I0
aI1
aI3
aI6
aag6
(g8
S'\xc8\\\x0f\x8f\xb4\x8a\xe0?'
tRp55
ag22
aa(lp56
(lp57
I0
aI1
aI4
aI6
aag6
(g8
S'\xba\xfb\x11J\x1f\xd8\xe0?'
tRp58
ag22
aa(lp59
(lp60
I0
aI2
aI3
aI6
aag6
(g8
S'\xb50h\x88\xed\xf1\xe0?'
tRp61
ag22
aa(lp62
(lp63
I0
aI2
aI4
aI6
aag6
(g8
S'r\xd8(7H\x05\xe1?'
tRp64
ag22
aa(lp65
(lp66
I0
aI3
aI4
aI6
aag6
(g8
S'\x9e\x93\x7f4\x92.\xe1?'
tRp67
ag22
aa(lp68
(lp69
I0
aI1
aI2
aI3
aI4
aag6
(g8
S'\x8b\x80\xbc\xb1\xe8I\xe3?'
tRp70
ag19
aa(lp71
g69
ag6
(g8
S'\x01\xab+\xd9\xce\xce\xe3?'
tRp72
ag22
aa(lp73
(lp74
I0
aI1
aI2
aI3
aI6
aag6
(g8
S'X{AH\x00\xdd\xe3?'
tRp75
ag19
aa(lp76
g74
ag6
(g8
S'c\x03\\n\x8bv\xe4?'
tRp77
ag22
aa(lp78
(lp79
I0
aI1
aI2
aI4
aI6
aag6
(g8
S'\x1b\xe0r[\xb4\xa3\xe4?'
tRp80
ag22
aa(lp81
(lp82
I0
aI1
aI3
aI4
aI6
aag6
(g8
S'*\x8d\x9f\xb7\x0e\xdf\xe4?'
tRp83
ag22
aa(lp84
(lp85
I0
aI2
aI3
aI4
aI6
aag6
(g8
S'\xf1\x16\xe3\x00\x92G\xe5?'
tRp86
ag22
aa(lp87
(lp88
I0
aI1
aI2
aI3
aI4
aI5
aag6
(g8
S')\x00\xec\xaf\xc9N\xe6?'
tRp89
ag19
aa(lp90
g88
ag6
(g8
S'\x19 t\xc0\xc7>\xe7?'
tRp91
ag22
aa(lp92
(lp93
I0
aI1
aI2
aI3
aI4
aI6
aag6
(g8
S'\x883\n\x0f\xb7T\xe7?'
tRp94
ag19
aa(lp95
g93
ag6
(g8
S'8\xc6\xfc\x8fA>\xe8?'
tRp96
ag22
aa(lp97
(lp98
I0
aI1
aI3
aI4
aI5
aI6
aag6
(g8
S'\xce#\xa8\x8e\xe6R\xe8?'
tRp99
ag22
aa(lp100
(lp101
I0
aI2
aI3
aI4
aI5
aI6
aag6
(g8
S'\xdevlv\xa3\xd2\xe8?'
tRp102
ag22
aa(lp103
(lp104
I0
aI1
aI2
aI3
aI4
aI5
aI6
aag6
(g8
S'\x1b\xd1\xb6ro\x04\xea?'
tRp105
ag19
aa(lp106
g104
ag6
(g8
S'\xa0N\xea\x81\x12\t\xeb?'
tRp107
ag22
aa.